; Function Attrs: mustprogress uwtable
define internal fastcc noundef i64 @_ZN32pxrInternal_v0_24__pxrReserved__12_GLOBAL__N_122Tf_RegistryManagerImpl22_RegisterLibraryNoLockEPKc(ptr noundef nonnull align 8 dereferenceable(504) %0, ptr noundef %1) unnamed_addr #1 align 2 personality ptr @__gxx_personality_v0 {
  %3 = alloca %"class.std::__cxx11::basic_string", align 8
  %4 = alloca %"class.std::allocator.54", align 1
  %5 = getelementptr inbounds nuw i8, ptr %0, i64 40
  call void @_ZNSaIcEC1Ev(ptr noundef nonnull align 1 dereferenceable(1) %4) #15
  %6 = invoke noundef ptr @_ZNSt7__cxx1112basic_stringIcSt11char_traitsIcESaIcEE13_M_local_dataEv(ptr noundef nonnull align 8 dereferenceable(32) %3)
          to label %.noexc unwind label %22

.noexc:                                           ; preds = %2
  invoke void @_ZNSt7__cxx1112basic_stringIcSt11char_traitsIcESaIcEE12_Alloc_hiderC1EPcRKS3_(ptr noundef nonnull align 8 dereferenceable(32) %3, ptr noundef %6, ptr noundef nonnull align 1 dereferenceable(1) %4)
          to label %.noexc8 unwind label %22

.noexc8:                                          ; preds = %.noexc
  %7 = icmp eq ptr %1, null
  br i1 %7, label %8, label %12

8:                                                ; preds = %.noexc8
  invoke void @_ZSt19__throw_logic_errorPKc(ptr noundef nonnull @.str.25) #24
          to label %9 unwind label %10

9:                                                ; preds = %8
  unreachable

10:                                               ; preds = %12, %8
  %11 = landingpad { ptr, i32 }
          cleanup
  call void @_ZNSaIcED2Ev(ptr noundef nonnull align 8 dereferenceable(32) %3) #15
  br label %.body

12:                                               ; preds = %.noexc8
  %13 = call noundef i64 @strlen(ptr noundef nonnull dereferenceable(1) %1) #15
  %14 = getelementptr inbounds i8, ptr %1, i64 %13
  invoke void @_ZNSt7__cxx1112basic_stringIcSt11char_traitsIcESaIcEE12_M_constructIPKcEEvT_S8_St20forward_iterator_tag(ptr noundef nonnull align 8 dereferenceable(32) %3, ptr noundef nonnull %1, ptr noundef nonnull %14)
          to label %_ZNSt7__cxx1112basic_stringIcSt11char_traitsIcESaIcEEC2IS3_EEPKcRKS3_.exit unwind label %10

_ZNSt7__cxx1112basic_stringIcSt11char_traitsIcESaIcEEC2IS3_EEPKcRKS3_.exit: ; preds = %12
  %15 = invoke noundef nonnull align 8 dereferenceable(8) ptr @_ZNSt3mapINSt7__cxx1112basic_stringIcSt11char_traitsIcESaIcEEEmSt4lessIS5_ESaISt4pairIKS5_mEEEixEOS5_(ptr noundef nonnull align 8 dereferenceable(48) %5, ptr noundef nonnull align 8 dereferenceable(32) %3)
          to label %16 unwind label %24

16:                                               ; preds = %_ZNSt7__cxx1112basic_stringIcSt11char_traitsIcESaIcEEC2IS3_EEPKcRKS3_.exit
  call void @_ZNSt7__cxx1112basic_stringIcSt11char_traitsIcESaIcEED1Ev(ptr noundef nonnull align 8 dereferenceable(32) %3) #15
  call void @_ZNSaIcED1Ev(ptr noundef nonnull align 1 dereferenceable(1) %4) #15
  %17 = load i64, ptr %15, align 8
  %18 = icmp eq i64 %17, 0
  br i1 %18, label %19, label %26

19:                                               ; preds = %16
  %20 = getelementptr inbounds nuw i8, ptr %0, i64 80
  %21 = load i64, ptr %20, align 8
  store i64 %21, ptr %15, align 8
  br label %26

22:                                               ; preds = %.noexc, %2
  %23 = landingpad { ptr, i32 }
          cleanup
  br label %.body

24:                                               ; preds = %_ZNSt7__cxx1112basic_stringIcSt11char_traitsIcESaIcEEC2IS3_EEPKcRKS3_.exit
  %25 = landingpad { ptr, i32 }
          cleanup
  call void @_ZNSt7__cxx1112basic_stringIcSt11char_traitsIcESaIcEED1Ev(ptr noundef nonnull align 8 dereferenceable(32) %3) #15
  br label %.body

.body:                                            ; preds = %22, %10, %24
  %.pn = phi { ptr, i32 } [ %25, %24 ], [ %23, %22 ], [ %11, %10 ]
  call void @_ZNSaIcED1Ev(ptr noundef nonnull align 1 dereferenceable(1) %4) #15
  resume { ptr, i32 } %.pn

26:                                               ; preds = %19, %16
  %27 = phi i64 [ %21, %19 ], [ %17, %16 ]
  ret i64 %27
}